; Function Attrs: nounwind uwtable
define internal range(i32 0, 2) i32 @reset_widget_idm1773(ptr readnone captures(none) %0, ptr noundef readonly captures(none) %1, ptr noundef %2) #0 {
  %4 = load i32, ptr %1, align 8, !tbaa !54
  %5 = icmp eq i32 %4, 5
  br i1 %5, label %6, label %9

6:                                                ; preds = %3
  %7 = tail call i64 @gtk_toggle_button_get_type() #13
  %8 = tail call ptr @g_type_check_instance_cast(ptr noundef %2, i64 noundef %7) #12
  tail call void @gtk_toggle_button_set_active(ptr noundef %8, i32 noundef 0) #12
  br label %9

9:                                                ; preds = %3, %6
  %.0 = phi i32 [ 1, %6 ], [ 0, %3 ]
  ret i32 %.0
}